target datalayout = "e-m:e-p270:32:32-p271:32:32-p272:64:64-i64:64-i128:128-f80:128-n8:16:32:64-S128"
target triple = "x86_64-pc-linux-gnu"

@.str.17 = private unnamed_addr constant [1 x i8] zeroinitializer, align 1
@.str.18 = private unnamed_addr constant [42 x i8] c"utf16 length is not multiple of two: %lu\0A\00", align 1
@.str.19 = private unnamed_addr constant [42 x i8] c"UTF16 surrogate encountered at wrong pos\0A\00", align 1

; Function Attrs: nounwind uwtable
define ptr @cli_utf16_to_utf8(ptr noundef %0, i64 noundef %1, i32 noundef %2) #0 {
  %4 = alloca ptr, align 8
  %5 = alloca ptr, align 8
  %6 = alloca i64, align 8
  %7 = alloca i32, align 4
  %8 = alloca i64, align 8
  %9 = alloca i64, align 8
  %10 = alloca i64, align 8
  %11 = alloca ptr, align 8
  %12 = alloca i16, align 2
  %13 = alloca i16, align 2
  store ptr %0, ptr %5, align 8
  store i64 %1, ptr %6, align 8
  store i32 %2, ptr %7, align 4
  %14 = load i64, ptr %6, align 8
  %15 = mul i64 %14, 3
  %16 = udiv i64 %15, 2
  %17 = add i64 %16, 2
  store i64 %17, ptr %10, align 8
  %18 = load i64, ptr %6, align 8
  %19 = icmp ult i64 %18, 2
  br i1 %19, label %20, label %22

20:                                               ; preds = %3
  %21 = call ptr @cli_safer_strdup(ptr noundef @.str.17)
  store ptr %21, ptr %4, align 8
  br label %291

22:                                               ; preds = %3
  %23 = load i64, ptr %6, align 8
  %24 = urem i64 %23, 2
  %25 = icmp ne i64 %24, 0
  br i1 %25, label %26, label %30

26:                                               ; preds = %22
  %27 = load i64, ptr %6, align 8
  call void (ptr, ...) @cli_warnmsg(ptr noundef @.str.18, i64 noundef %27)
  %28 = load i64, ptr %6, align 8
  %29 = add i64 %28, -1
  store i64 %29, ptr %6, align 8
  br label %30

30:                                               ; preds = %26, %22
  %31 = load i64, ptr %10, align 8
  %32 = call ptr @cli_max_malloc(i64 noundef %31)
  store ptr %32, ptr %11, align 8
  %33 = load ptr, ptr %11, align 8
  %34 = icmp ne ptr %33, null
  br i1 %34, label %36, label %35

35:                                               ; preds = %30
  store ptr null, ptr %4, align 8
  br label %291

36:                                               ; preds = %30
  store i64 0, ptr %8, align 8
  %37 = load ptr, ptr %5, align 8
  %38 = getelementptr inbounds i8, ptr %37, i64 0
  %39 = load i8, ptr %38, align 1
  %40 = sext i8 %39 to i32
  %41 = icmp eq i32 %40, -1
  br i1 %41, label %42, label %48

42:                                               ; preds = %36
  %43 = load ptr, ptr %5, align 8
  %44 = getelementptr inbounds i8, ptr %43, i64 1
  %45 = load i8, ptr %44, align 1
  %46 = sext i8 %45 to i32
  %47 = icmp eq i32 %46, -2
  br i1 %47, label %60, label %48

48:                                               ; preds = %42, %36
  %49 = load ptr, ptr %5, align 8
  %50 = getelementptr inbounds i8, ptr %49, i64 0
  %51 = load i8, ptr %50, align 1
  %52 = sext i8 %51 to i32
  %53 = icmp eq i32 %52, -2
  br i1 %53, label %54, label %73

54:                                               ; preds = %48
  %55 = load ptr, ptr %5, align 8
  %56 = getelementptr inbounds i8, ptr %55, i64 1
  %57 = load i8, ptr %56, align 1
  %58 = sext i8 %57 to i32
  %59 = icmp eq i32 %58, -1
  br i1 %59, label %60, label %73

60:                                               ; preds = %54, %42
  %61 = load i64, ptr %8, align 8
  %62 = add i64 %61, 2
  store i64 %62, ptr %8, align 8
  %63 = load i32, ptr %7, align 4
  %64 = icmp eq i32 %63, 1
  br i1 %64, label %65, label %72

65:                                               ; preds = %60
  %66 = load ptr, ptr %5, align 8
  %67 = getelementptr inbounds i8, ptr %66, i64 0
  %68 = load i8, ptr %67, align 1
  %69 = sext i8 %68 to i32
  %70 = icmp eq i32 %69, -1
  %71 = select i1 %70, i32 7, i32 6
  store i32 %71, ptr %7, align 4
  br label %72

72:                                               ; preds = %65, %60
  br label %78

73:                                               ; preds = %54, %48
  %74 = load i32, ptr %7, align 4
  %75 = icmp eq i32 %74, 1
  br i1 %75, label %76, label %77

76:                                               ; preds = %73
  store i32 6, ptr %7, align 4
  br label %77

77:                                               ; preds = %76, %73
  br label %78

78:                                               ; preds = %77, %72
  store i64 0, ptr %9, align 8
  br label %79

79:                                               ; preds = %276, %78
  %80 = load i64, ptr %8, align 8
  %81 = load i64, ptr %6, align 8
  %82 = icmp ult i64 %80, %81
  br i1 %82, label %83, label %87

83:                                               ; preds = %79
  %84 = load i64, ptr %9, align 8
  %85 = load i64, ptr %10, align 8
  %86 = icmp ult i64 %84, %85
  br label %87

87:                                               ; preds = %83, %79
  %88 = phi i1 [ false, %79 ], [ %86, %83 ]
  br i1 %88, label %89, label %279

89:                                               ; preds = %87
  %90 = load ptr, ptr %5, align 8
  %91 = load i64, ptr %8, align 8
  %92 = getelementptr inbounds i8, ptr %90, i64 %91
  %93 = load i16, ptr %92, align 1
  store i16 %93, ptr %12, align 2
  %94 = load i32, ptr %7, align 4
  %95 = icmp eq i32 %94, 6
  br i1 %95, label %96, label %107

96:                                               ; preds = %89
  %97 = load i16, ptr %12, align 2
  %98 = zext i16 %97 to i32
  %99 = and i32 %98, 255
  %100 = shl i32 %99, 8
  %101 = load i16, ptr %12, align 2
  %102 = zext i16 %101 to i32
  %103 = ashr i32 %102, 8
  %104 = and i32 %103, 255
  %105 = or i32 %100, %104
  %106 = trunc i32 %105 to i16
  store i16 %106, ptr %12, align 2
  br label %107

107:                                              ; preds = %96, %89
  %108 = load i16, ptr %12, align 2
  %109 = zext i16 %108 to i32
  %110 = icmp slt i32 %109, 128
  br i1 %110, label %111, label %118

111:                                              ; preds = %107
  %112 = load i16, ptr %12, align 2
  %113 = trunc i16 %112 to i8
  %114 = load ptr, ptr %11, align 8
  %115 = load i64, ptr %9, align 8
  %116 = add i64 %115, 1
  store i64 %116, ptr %9, align 8
  %117 = getelementptr inbounds i8, ptr %114, i64 %115
  store i8 %113, ptr %117, align 1
  br label %275

118:                                              ; preds = %107
  %119 = load i16, ptr %12, align 2
  %120 = zext i16 %119 to i32
  %121 = icmp slt i32 %120, 2048
  br i1 %121, label %122, label %142

122:                                              ; preds = %118
  %123 = load i16, ptr %12, align 2
  %124 = zext i16 %123 to i32
  %125 = ashr i32 %124, 6
  %126 = or i32 192, %125
  %127 = trunc i32 %126 to i8
  %128 = load ptr, ptr %11, align 8
  %129 = load i64, ptr %9, align 8
  %130 = getelementptr inbounds i8, ptr %128, i64 %129
  store i8 %127, ptr %130, align 1
  %131 = load i16, ptr %12, align 2
  %132 = zext i16 %131 to i32
  %133 = and i32 %132, 63
  %134 = or i32 128, %133
  %135 = trunc i32 %134 to i8
  %136 = load ptr, ptr %11, align 8
  %137 = load i64, ptr %9, align 8
  %138 = add i64 %137, 1
  %139 = getelementptr inbounds i8, ptr %136, i64 %138
  store i8 %135, ptr %139, align 1
  %140 = load i64, ptr %9, align 8
  %141 = add i64 %140, 2
  store i64 %141, ptr %9, align 8
  br label %274

142:                                              ; preds = %118
  %143 = load i16, ptr %12, align 2
  %144 = zext i16 %143 to i32
  %145 = icmp slt i32 %144, 55296
  br i1 %145, label %150, label %146

146:                                              ; preds = %142
  %147 = load i16, ptr %12, align 2
  %148 = zext i16 %147 to i32
  %149 = icmp sge i32 %148, 57344
  br i1 %149, label %150, label %180

150:                                              ; preds = %146, %142
  %151 = load i16, ptr %12, align 2
  %152 = zext i16 %151 to i32
  %153 = ashr i32 %152, 12
  %154 = or i32 224, %153
  %155 = trunc i32 %154 to i8
  %156 = load ptr, ptr %11, align 8
  %157 = load i64, ptr %9, align 8
  %158 = getelementptr inbounds i8, ptr %156, i64 %157
  store i8 %155, ptr %158, align 1
  %159 = load i16, ptr %12, align 2
  %160 = zext i16 %159 to i32
  %161 = ashr i32 %160, 6
  %162 = and i32 %161, 63
  %163 = or i32 128, %162
  %164 = trunc i32 %163 to i8
  %165 = load ptr, ptr %11, align 8
  %166 = load i64, ptr %9, align 8
  %167 = add i64 %166, 1
  %168 = getelementptr inbounds i8, ptr %165, i64 %167
  store i8 %164, ptr %168, align 1
  %169 = load i16, ptr %12, align 2
  %170 = zext i16 %169 to i32
  %171 = and i32 %170, 63
  %172 = or i32 128, %171
  %173 = trunc i32 %172 to i8
  %174 = load ptr, ptr %11, align 8
  %175 = load i64, ptr %9, align 8
  %176 = add i64 %175, 2
  %177 = getelementptr inbounds i8, ptr %174, i64 %176
  store i8 %173, ptr %177, align 1
  %178 = load i64, ptr %9, align 8
  %179 = add i64 %178, 3
  store i64 %179, ptr %9, align 8
  br label %273

180:                                              ; preds = %146
  %181 = load i16, ptr %12, align 2
  %182 = zext i16 %181 to i32
  %183 = icmp slt i32 %182, 56320
  br i1 %183, label %184, label %259

184:                                              ; preds = %180
  %185 = load i64, ptr %8, align 8
  %186 = add i64 %185, 3
  %187 = load i64, ptr %6, align 8
  %188 = icmp ult i64 %186, %187
  br i1 %188, label %189, label %259

189:                                              ; preds = %184
  %190 = load i16, ptr %12, align 2
  %191 = zext i16 %190 to i32
  %192 = sub nsw i32 %191, 55296
  %193 = add nsw i32 %192, 64
  %194 = trunc i32 %193 to i16
  store i16 %194, ptr %12, align 2
  %195 = load i64, ptr %8, align 8
  %196 = add i64 %195, 3
  %197 = load i64, ptr %6, align 8
  %198 = icmp ult i64 %196, %197
  br i1 %198, label %199, label %206

199:                                              ; preds = %189
  %200 = load ptr, ptr %5, align 8
  %201 = load i64, ptr %8, align 8
  %202 = add i64 %201, 2
  %203 = getelementptr inbounds i8, ptr %200, i64 %202
  %204 = load i16, ptr %203, align 1
  %205 = sext i16 %204 to i32
  br label %207

206:                                              ; preds = %189
  br label %207

207:                                              ; preds = %206, %199
  %208 = phi i32 [ %205, %199 ], [ 0, %206 ]
  %209 = trunc i32 %208 to i16
  store i16 %209, ptr %13, align 2
  %210 = load i16, ptr %13, align 2
  %211 = zext i16 %210 to i32
  %212 = sub nsw i32 %211, 56320
  %213 = trunc i32 %212 to i16
  store i16 %213, ptr %13, align 2
  %214 = load i16, ptr %12, align 2
  %215 = zext i16 %214 to i32
  %216 = ashr i32 %215, 8
  %217 = or i32 240, %216
  %218 = trunc i32 %217 to i8
  %219 = load ptr, ptr %11, align 8
  %220 = load i64, ptr %9, align 8
  %221 = getelementptr inbounds i8, ptr %219, i64 %220
  store i8 %218, ptr %221, align 1
  %222 = load i16, ptr %12, align 2
  %223 = zext i16 %222 to i32
  %224 = ashr i32 %223, 2
  %225 = and i32 %224, 63
  %226 = or i32 128, %225
  %227 = trunc i32 %226 to i8
  %228 = load ptr, ptr %11, align 8
  %229 = load i64, ptr %9, align 8
  %230 = add i64 %229, 1
  %231 = getelementptr inbounds i8, ptr %228, i64 %230
  store i8 %227, ptr %231, align 1
  %232 = load i16, ptr %12, align 2
  %233 = zext i16 %232 to i32
  %234 = and i32 %233, 3
  %235 = shl i32 %234, 4
  %236 = or i32 128, %235
  %237 = load i16, ptr %13, align 2
  %238 = zext i16 %237 to i32
  %239 = ashr i32 %238, 6
  %240 = or i32 %236, %239
  %241 = trunc i32 %240 to i8
  %242 = load ptr, ptr %11, align 8
  %243 = load i64, ptr %9, align 8
  %244 = add i64 %243, 2
  %245 = getelementptr inbounds i8, ptr %242, i64 %244
  store i8 %241, ptr %245, align 1
  %246 = load i16, ptr %13, align 2
  %247 = zext i16 %246 to i32
  %248 = and i32 %247, 63
  %249 = or i32 128, %248
  %250 = trunc i32 %249 to i8
  %251 = load ptr, ptr %11, align 8
  %252 = load i64, ptr %9, align 8
  %253 = add i64 %252, 3
  %254 = getelementptr inbounds i8, ptr %251, i64 %253
  store i8 %250, ptr %254, align 1
  %255 = load i64, ptr %9, align 8
  %256 = add i64 %255, 4
  store i64 %256, ptr %9, align 8
  %257 = load i64, ptr %8, align 8
  %258 = add i64 %257, 2
  store i64 %258, ptr %8, align 8
  br label %272

259:                                              ; preds = %184, %180
  call void (ptr, ...) @cli_dbgmsg(ptr noundef @.str.19)
  %260 = load ptr, ptr %11, align 8
  %261 = load i64, ptr %9, align 8
  %262 = add i64 %261, 1
  store i64 %262, ptr %9, align 8
  %263 = getelementptr inbounds i8, ptr %260, i64 %261
  store i8 -17, ptr %263, align 1
  %264 = load ptr, ptr %11, align 8
  %265 = load i64, ptr %9, align 8
  %266 = add i64 %265, 1
  store i64 %266, ptr %9, align 8
  %267 = getelementptr inbounds i8, ptr %264, i64 %265
  store i8 -65, ptr %267, align 1
  %268 = load ptr, ptr %11, align 8
  %269 = load i64, ptr %9, align 8
  %270 = add i64 %269, 1
  store i64 %270, ptr %9, align 8
  %271 = getelementptr inbounds i8, ptr %268, i64 %269
  store i8 -67, ptr %271, align 1
  br label %272

272:                                              ; preds = %259, %207
  br label %273

273:                                              ; preds = %272, %150
  br label %274

274:                                              ; preds = %273, %122
  br label %275

275:                                              ; preds = %274, %111
  br label %276

276:                                              ; preds = %275
  %277 = load i64, ptr %8, align 8
  %278 = add i64 %277, 2
  store i64 %278, ptr %8, align 8
  br label %79

279:                                              ; preds = %87
  %280 = load i64, ptr %9, align 8
  %281 = load i64, ptr %10, align 8
  %282 = icmp uge i64 %280, %281
  br i1 %282, label %283, label %286

283:                                              ; preds = %279
  %284 = load i64, ptr %10, align 8
  %285 = sub i64 %284, 1
  store i64 %285, ptr %9, align 8
  br label %286

286:                                              ; preds = %283, %279
  %287 = load ptr, ptr %11, align 8
  %288 = load i64, ptr %9, align 8
  %289 = getelementptr inbounds i8, ptr %287, i64 %288
  store i8 0, ptr %289, align 1
  %290 = load ptr, ptr %11, align 8
  store ptr %290, ptr %4, align 8
  br label %291

291:                                              ; preds = %286, %35, %20
  %292 = load ptr, ptr %4, align 8
  ret ptr %292
}