; Function Attrs: nounwind uwtable
define ptr @cli_utf16_to_utf8(ptr nocapture noundef readonly %0, i64 noundef %1, i32 noundef %2) local_unnamed_addr #0 {
  %4 = mul i64 %1, 3
  %5 = lshr i64 %4, 1
  %6 = add nuw i64 %5, 2
  %7 = icmp ult i64 %1, 2
  br i1 %7, label %8, label %10

8:                                                ; preds = %3
  %9 = tail call ptr @cli_safer_strdup(ptr noundef nonnull @.str.17) #16
  br label %110

10:                                               ; preds = %3
  %11 = and i64 %1, 1
  %.not = icmp eq i64 %11, 0
  br i1 %.not, label %14, label %12

12:                                               ; preds = %10
  tail call void (ptr, ...) @cli_warnmsg(ptr noundef nonnull @.str.18, i64 noundef %1) #16
  %13 = add nsw i64 %1, -1
  br label %14

14:                                               ; preds = %12, %10
  %.088 = phi i64 [ %13, %12 ], [ %1, %10 ]
  %15 = tail call ptr @cli_max_malloc(i64 noundef %6) #16
  %.not99 = icmp eq ptr %15, null
  br i1 %.not99, label %110, label %16

16:                                               ; preds = %14
  %17 = load i8, ptr %0, align 1
  switch i8 %17, label %.thread [
    i8 -1, label %18
    i8 -2, label %22
  ]

18:                                               ; preds = %16
  %19 = getelementptr inbounds i8, ptr %0, i64 1
  %20 = load i8, ptr %19, align 1
  %21 = icmp eq i8 %20, -2
  br i1 %21, label %26, label %.thread

22:                                               ; preds = %16
  %23 = getelementptr inbounds i8, ptr %0, i64 1
  %24 = load i8, ptr %23, align 1
  %25 = icmp eq i8 %24, -1
  br i1 %25, label %26, label %.thread

.thread:                                          ; preds = %16, %18, %22
  br label %26

26:                                               ; preds = %18, %22, %.thread
  %.sink113 = phi i32 [ 6, %.thread ], [ 6, %22 ], [ 7, %18 ]
  %.091 = phi i64 [ 0, %.thread ], [ 2, %22 ], [ 2, %18 ]
  %27 = icmp ult i64 %.091, %.088
  br i1 %27, label %.lr.ph, label %._crit_edge.thread

.lr.ph:                                           ; preds = %26
  %28 = icmp eq i32 %2, 1
  %spec.select104 = select i1 %28, i32 %.sink113, i32 %2
  %29 = icmp eq i32 %spec.select104, 6
  br label %30

30:                                               ; preds = %.lr.ph, %102
  %.090106 = phi i64 [ 0, %.lr.ph ], [ %.1, %102 ]
  %.192105 = phi i64 [ %.091, %.lr.ph ], [ %103, %102 ]
  %31 = getelementptr inbounds i8, ptr %0, i64 %.192105
  %32 = load i16, ptr %31, align 1
  %rev = tail call i16 @llvm.bswap.i16(i16 %32)
  %spec.select = select i1 %29, i16 %rev, i16 %32
  %33 = icmp ult i16 %spec.select, 128
  br i1 %33, label %34, label %38

34:                                               ; preds = %30
  %35 = trunc nuw i16 %spec.select to i8
  %36 = add nuw i64 %.090106, 1
  %37 = getelementptr inbounds i8, ptr %15, i64 %.090106
  store i8 %35, ptr %37, align 1
  br label %102

38:                                               ; preds = %30
  %39 = icmp ult i16 %spec.select, 2048
  br i1 %39, label %40, label %50

40:                                               ; preds = %38
  %41 = lshr i16 %spec.select, 6
  %42 = trunc nuw i16 %41 to i8
  %43 = or disjoint i8 %42, -64
  %44 = getelementptr inbounds i8, ptr %15, i64 %.090106
  store i8 %43, ptr %44, align 1
  %45 = trunc i16 %spec.select to i8
  %46 = and i8 %45, 63
  %47 = or disjoint i8 %46, -128
  %48 = getelementptr i8, ptr %44, i64 1
  store i8 %47, ptr %48, align 1
  %49 = add nuw i64 %.090106, 2
  br label %102

50:                                               ; preds = %38
  %51 = add i16 %spec.select, 8192
  %or.cond = icmp ult i16 %51, -2048
  br i1 %or.cond, label %52, label %67

52:                                               ; preds = %50
  %53 = lshr i16 %spec.select, 12
  %54 = trunc nuw nsw i16 %53 to i8
  %55 = or disjoint i8 %54, -32
  %56 = getelementptr inbounds i8, ptr %15, i64 %.090106
  store i8 %55, ptr %56, align 1
  %57 = lshr i16 %spec.select, 6
  %58 = trunc i16 %57 to i8
  %59 = and i8 %58, 63
  %60 = or disjoint i8 %59, -128
  %61 = getelementptr i8, ptr %56, i64 1
  store i8 %60, ptr %61, align 1
  %62 = trunc i16 %spec.select to i8
  %63 = and i8 %62, 63
  %64 = or disjoint i8 %63, -128
  %65 = getelementptr i8, ptr %56, i64 2
  store i8 %64, ptr %65, align 1
  %66 = add nuw i64 %.090106, 3
  br label %102

67:                                               ; preds = %50
  %68 = icmp ult i16 %spec.select, -9216
  %69 = add i64 %.192105, 3
  %70 = icmp ult i64 %69, %.088
  %or.cond102 = select i1 %68, i1 %70, i1 false
  br i1 %or.cond102, label %71, label %97

71:                                               ; preds = %67
  %72 = add nsw i16 %spec.select, 10304
  %73 = getelementptr i8, ptr %31, i64 2
  %74 = load i16, ptr %73, align 1
  %75 = add i16 %74, 1024
  %76 = lshr i16 %72, 8
  %77 = trunc nuw i16 %76 to i8
  %78 = or disjoint i8 %77, -16
  %79 = getelementptr inbounds i8, ptr %15, i64 %.090106
  store i8 %78, ptr %79, align 1
  %80 = trunc i16 %72 to i8
  %81 = lshr i8 %80, 2
  %82 = or disjoint i8 %81, -128
  %83 = getelementptr i8, ptr %79, i64 1
  store i8 %82, ptr %83, align 1
  %84 = shl i16 %spec.select, 4
  %85 = and i16 %84, 48
  %86 = lshr i16 %75, 6
  %87 = or i16 %85, %86
  %88 = trunc i16 %87 to i8
  %89 = or i8 %88, -128
  %90 = getelementptr i8, ptr %79, i64 2
  store i8 %89, ptr %90, align 1
  %91 = trunc i16 %74 to i8
  %92 = and i8 %91, 63
  %93 = or disjoint i8 %92, -128
  %94 = getelementptr i8, ptr %79, i64 3
  store i8 %93, ptr %94, align 1
  %95 = add nuw i64 %.090106, 4
  %96 = add i64 %.192105, 2
  br label %102

97:                                               ; preds = %67
  tail call void (ptr, ...) @cli_dbgmsg(ptr noundef nonnull @.str.19) #16
  %98 = getelementptr inbounds i8, ptr %15, i64 %.090106
  store i8 -17, ptr %98, align 1
  %99 = getelementptr i8, ptr %98, i64 1
  store i8 -65, ptr %99, align 1
  %100 = add nuw i64 %.090106, 3
  %101 = getelementptr i8, ptr %98, i64 2
  store i8 -67, ptr %101, align 1
  br label %102

102:                                              ; preds = %34, %52, %97, %71, %40
  %.293 = phi i64 [ %.192105, %34 ], [ %.192105, %40 ], [ %.192105, %52 ], [ %96, %71 ], [ %.192105, %97 ]
  %.1 = phi i64 [ %36, %34 ], [ %49, %40 ], [ %66, %52 ], [ %95, %71 ], [ %100, %97 ]
  %103 = add i64 %.293, 2
  %104 = icmp ult i64 %103, %.088
  %105 = icmp ult i64 %.1, %6
  %cond.fr = freeze i1 %105
  %106 = and i1 %104, %cond.fr
  br i1 %106, label %30, label %._crit_edge

._crit_edge:                                      ; preds = %102
  %107 = add nuw i64 %5, 1
  %spec.select114 = select i1 %cond.fr, i64 %.1, i64 %107
  br label %._crit_edge.thread

._crit_edge.thread:                               ; preds = %._crit_edge, %26
  %108 = phi i64 [ 0, %26 ], [ %spec.select114, %._crit_edge ]
  %109 = getelementptr inbounds i8, ptr %15, i64 %108
  store i8 0, ptr %109, align 1
  br label %110

110:                                              ; preds = %14, %._crit_edge.thread, %8
  %.0 = phi ptr [ %9, %8 ], [ %15, %._crit_edge.thread ], [ null, %14 ]
  ret ptr %.0
}